Certificate:
    Data:
        Version: 3 (0x2)
        Serial Number: 12 (0xc)
    Signature Algorithm: sha256WithRSAEncryption
        Issuer: C=US, ST=California, L=San Francisco, O=Janky Co, OU=Dev, CN=Janky Intermediate CA
        Validity
            Not Before: Jul  5 04:40:49 2016 GMT
            Not After : Jul  1 04:40:49 2032 GMT
        Subject: C=US, ST=California, L=San Francisco, O=Janky Co, OU=Dev, CN=localhost
        Subject Public Key Info:
            Public Key Algorithm: rsaEncryption
                Public-Key: (2048 bit)
                Modulus:
                    00:c1:1f:71:15:e3:4f:9b:5f:54:42:e4:61:26:a2:
                    74:6a:b6:0d:c1:3c:c9:70:c5:92:31:2e:fd:83:56:
                    93:77:df:8c:17:e9:2d:09:98:a9:dc:ed:1b:43:37:
                    8a:81:50:3b:0f:a4:a9:5f:50:51:f8:4e:3a:b4:c4:
                    7f:e9:2f:0a:ae:6d:cf:ac:87:b8:2d:92:e3:f7:da:
                    53:29:fe:c3:5c:71:01:bc:19:39:d4:03:d1:20:f9:
                    c4:a2:32:07:66:25:87:55:d9:20:62:2e:fb:74:56:
                    80:76:72:54:fb:27:4b:e8:21:d5:d2:a7:8e:cb:5b:
                    38:2f:e0:42:c6:f9:7d:37:0d:20:a6:ad:75:5c:bf:
                    c1:a9:94:73:41:f0:b9:a0:f5:49:f5:b2:92:71:bb:
                    eb:2c:8d:9a:2d:2a:3a:e6:38:f6:c5:60:5d:0c:9c:
                    b5:3d:80:a5:70:d3:31:a7:d1:8d:9d:69:5b:84:31:
                    82:24:de:94:bb:2b:7d:3e:dd:bc:15:bb:4d:37:30:
                    1c:54:cb:94:1a:79:6a:8c:d4:2c:e5:9d:79:91:da:
                    71:7c:05:9d:1d:80:9e:be:77:32:53:c1:6f:1c:79:
                    1b:9b:d2:94:5d:76:36:a3:61:36:72:a2:33:5f:f3:
                    a4:e5:44:6e:69:15:3c:9f:bb:e4:01:58:bd:64:7c:
                    92:a3
                Exponent: 65537 (0x10001)
        X509v3 extensions:
            X509v3 Basic Constraints: critical
                CA:FALSE
            X509v3 Subject Key Identifier: 
                0F:6B:FC:A3:62:33:9D:19:8F:47:C2:87:90:48:C3:A7:F7:6D:05:AC
            X509v3 Authority Key Identifier: 
                keyid:93:81:E7:DC:59:0B:A9:7B:D0:CB:01:93:66:93:21:AF:1C:4E:75:DF
                DirName:/CN=Janky Root CA/OU=Dev/O=Janky Co/L=San Francisco/ST=California/C=US
                serial:01

            X509v3 Key Usage: critical
                Digital Signature, Non Repudiation, Key Encipherment, Data Encipherment
            X509v3 Extended Key Usage: critical
                TLS Web Server Authentication
            X509v3 Subject Alternative Name: 
                DNS:localhost, DNS:fido.example.com, DNS:localhost
    Signature Algorithm: sha256WithRSAEncryption
         9c:8f:be:bc:49:f9:d5:18:36:4b:54:4e:1a:14:e2:b5:25:2f:
         52:3c:24:d2:30:99:41:87:dc:17:f0:bf:8e:31:8e:ae:34:52:
         42:67:da:e2:15:fe:1b:b1:5c:ae:bd:9e:41:8f:e9:33:9c:82:
         bd:7e:29:03:02:5f:62:1e:25:b6:f2:c5:9d:aa:d8:c7:75:25:
         68:de:ac:51:01:d4:26:78:11:46:cb:41:1f:cb:02:0e:7d:5d:
         e0:ce:6b:7a:7b:f3:e9:f8:1b:bb:f6:dd:60:62:57:84:40:9b:
         21:a6:05:42:22:99:67:cd:0a:26:4d:4e:4c:89:e2:8d:55:d4:
         3a:2e:c7:e0:04:87:88:a8:0d:eb:93:0e:0e:aa:d1:b9:a2:c6:
         86:7c:99:b4:6f:cb:c1:a6:5c:88:b1:7e:b8:49:ba:8e:fd:72:
         a8:5c:93:8b:38:e6:91:40:a6:39:6a:63:bb:07:59:af:ab:28:
         e3:45:37:2e:33:f0:1a:35:01:0c:e7:59:a3:e9:9c:57:ca:9a:
         2f:c3:75:bb:cd:f6:bc:0b:ce:99:4d:a4:0f:3e:4d:88:09:1c:
         a5:51:e3:bb:7a:9a:7a:b8:91:4a:fe:c0:55:6f:36:a4:39:fe:
         6a:7c:2a:ad:e6:76:3d:5a:9a:f7:91:85:e1:ee:88:7d:5a:1b:
         dc:70:7b:6d
-----BEGIN CERTIFICATE-----
MIIEkzCCA3ugAwIBAgIBDDANBgkqhkiG9w0BAQsFADB7MQswCQYDVQQGEwJVUzET
MBEGA1UECAwKQ2FsaWZvcm5pYTEWMBQGA1UEBwwNU2FuIEZyYW5jaXNjbzERMA8G
A1UECgwISmFua3kgQ28xDDAKBgNVBAsMA0RldjEeMBwGA1UEAwwVSmFua3kgSW50
ZXJtZWRpYXRlIENBMB4XDTE2MDcwNTA0NDA0OVoXDTMyMDcwMTA0NDA0OVowbzEL
MAkGA1UEBhMCVVMxEzARBgNVBAgMCkNhbGlmb3JuaWExFjAUBgNVBAcMDVNhbiBG
cmFuY2lzY28xETAPBgNVBAoMCEphbmt5IENvMQwwCgYDVQQLDANEZXYxEjAQBgNV
BAMMCWxvY2FsaG9zdDCCASIwDQYJKoZIhvcNAQEBBQADggEPADCCAQoCggEBAMEf
cRXjT5tfVELkYSaidGq2DcE8yXDFkjEu/YNWk3ffjBfpLQmYqdztG0M3ioFQOw+k
qV9QUfhOOrTEf+kvCq5tz6yHuC2S4/faUyn+w1xxAbwZOdQD0SD5xKIyB2Ylh1XZ
IGIu+3RWgHZyVPsnS+gh1dKnjstbOC/gQsb5fTcNIKatdVy/wamUc0HwuaD1SfWy
knG76yyNmi0qOuY49sVgXQyctT2ApXDTMafRjZ1pW4QxgiTelLsrfT7dvBW7TTcw
HFTLlBp5aozULOWdeZHacXwFnR2Anr53MlPBbxx5G5vSlF12NqNhNnKiM1/zpOVE
bmkVPJ+75AFYvWR8kqMCAwEAAaOCASwwggEoMAwGA1UdEwEB/wQCMAAwHQYDVR0O
BBYEFA9r/KNiM50Zj0fCh5BIw6f3bQWsMIGdBgNVHSMEgZUwgZKAFJOB59xZC6l7
0MsBk2aTIa8cTnXfoXekdTBzMRYwFAYDVQQDDA1KYW5reSBSb290IENBMQwwCgYD
VQQLDANEZXYxETAPBgNVBAoMCEphbmt5IENvMRYwFAYDVQQHDA1TYW4gRnJhbmNp
c2NvMRMwEQYDVQQIDApDYWxpZm9ybmlhMQswCQYDVQQGEwJVU4IBATAOBgNVHQ8B
Af8EBAMCBPAwFgYDVR0lAQH/BAwwCgYIKwYBBQUHAwEwMQYDVR0RBCowKIIJbG9j
YWxob3N0ghBmaWRvLmV4YW1wbGUuY29tgglsb2NhbGhvc3QwDQYJKoZIhvcNAQEL
BQADggEBAJyPvrxJ+dUYNktUThoU4rUlL1I8JNIwmUGH3Bfwv44xjq40UkJn2uIV
/huxXK69nkGP6TOcgr1+KQMCX2IeJbbyxZ2q2Md1JWjerFEB1CZ4EUbLQR/LAg59
XeDOa3p78+n4G7v23WBiV4RAmyGmBUIimWfNCiZNTkyJ4o1V1Doux+AEh4ioDeuT
Dg6q0bmixoZ8mbRvy8GmXIixfrhJuo79cqhck4s45pFApjlqY7sHWa+rKONFNy4z
8Bo1AQznWaPpnFfKmi/DdbvN9rwLzplNpA8+TYgJHKVR47t6mnq4kUr+wFVvNqQ5
/mp8Kq3mdj1amveRheHuiH1aG9xwe20=
-----END CERTIFICATE-----
